; Function Attrs: nofree norecurse nosync nounwind sspstrong memory(read, argmem: readwrite, inaccessiblemem: none) uwtable
define internal i32 @case_map(ptr noundef captures(none) %0, ptr noundef captures(none) %1, ptr noundef readnone captures(address) %2, ptr noundef %3, ptr noundef readnone captures(address) %4, ptr readnone captures(none) %5) #4 {
  %7 = load i32, ptr %0, align 4, !tbaa !14
  %8 = load ptr, ptr %1, align 8, !tbaa !6
  %9 = icmp ult ptr %8, %2
  %10 = icmp ult ptr %3, %4
  %11 = and i1 %9, %10
  br i1 %11, label %.lr.ph, label %._crit_edge

.lr.ph:                                           ; preds = %6, %56
  %12 = phi ptr [ %60, %56 ], [ %8, %6 ]
  %.058 = phi i32 [ %spec.select, %56 ], [ %7, %6 ]
  %.04057 = phi ptr [ %57, %56 ], [ %3, %6 ]
  %13 = getelementptr inbounds nuw i8, ptr %12, i64 1
  store ptr %13, ptr %1, align 8, !tbaa !6
  %14 = load i8, ptr %12, align 1, !tbaa !11
  switch i8 %14, label %27 [
    i8 -33, label %15
    i8 -75, label %56
  ]

15:                                               ; preds = %.lr.ph
  %16 = and i32 %.058, 8192
  %.not51 = icmp eq i32 %16, 0
  br i1 %.not51, label %22, label %17

17:                                               ; preds = %15
  %18 = or i32 %.058, 262144
  %19 = getelementptr inbounds nuw i8, ptr %.04057, i64 1
  store i8 83, ptr %.04057, align 1, !tbaa !11
  %20 = and i32 %.058, 32768
  %.not53 = icmp eq i32 %20, 0
  %21 = select i1 %.not53, i8 83, i8 115
  br label %56

22:                                               ; preds = %15
  %23 = and i32 %.058, 524288
  %.not52 = icmp eq i32 %23, 0
  br i1 %.not52, label %56, label %24

24:                                               ; preds = %22
  %25 = or i32 %.058, 262144
  %26 = getelementptr inbounds nuw i8, ptr %.04057, i64 1
  store i8 115, ptr %.04057, align 1, !tbaa !11
  br label %56

27:                                               ; preds = %.lr.ph
  %28 = zext i8 %14 to i64
  %29 = getelementptr inbounds nuw [256 x i16], ptr @EncCP1252_CtypeTable, i64 0, i64 %28
  %30 = load i16, ptr %29, align 2, !tbaa !12
  %31 = and i16 %30, 1024
  %.not = icmp eq i16 %31, 0
  %32 = and i32 %.058, 540672
  %.not46 = icmp eq i32 %32, 0
  %or.cond55 = select i1 %.not, i1 true, i1 %.not46
  br i1 %or.cond55, label %42, label %33

33:                                               ; preds = %27
  %34 = or i32 %.058, 262144
  %35 = icmp eq i8 %14, 73
  br i1 %35, label %36, label %39

36:                                               ; preds = %33
  %37 = and i32 %.058, 1048576
  %.not50 = icmp eq i32 %37, 0
  %38 = select i1 %.not50, i8 105, i8 -71
  br label %56

39:                                               ; preds = %33
  %40 = getelementptr inbounds nuw [256 x i8], ptr @EncCP1252_ToLowerCaseTable, i64 0, i64 %28
  %41 = load i8, ptr %40, align 1, !tbaa !11
  br label %56

42:                                               ; preds = %27
  %43 = and i16 %30, 64
  %.not47 = icmp eq i16 %43, 0
  %44 = and i32 %.058, 8192
  %.not48 = icmp eq i32 %44, 0
  %or.cond56 = select i1 %.not47, i1 true, i1 %.not48
  br i1 %or.cond56, label %56, label %45

45:                                               ; preds = %42
  %46 = or i32 %.058, 262144
  switch i8 %14, label %50 [
    i8 105, label %47
    i8 -71, label %56
  ]

47:                                               ; preds = %45
  %48 = and i32 %.058, 1048576
  %.not49 = icmp eq i32 %48, 0
  %49 = select i1 %.not49, i8 73, i8 -87
  br label %56

50:                                               ; preds = %45
  %51 = and i8 %14, -16
  %or.cond = icmp eq i8 %51, -80
  br i1 %or.cond, label %52, label %54

52:                                               ; preds = %50
  %53 = add nsw i8 %14, -16
  br label %56

54:                                               ; preds = %50
  %55 = add i8 %14, -32
  br label %56

56:                                               ; preds = %45, %.lr.ph, %42, %54, %52, %47, %36, %39, %17, %24, %22
  %.042 = phi i8 [ %21, %17 ], [ 115, %24 ], [ -33, %22 ], [ %38, %36 ], [ %41, %39 ], [ %49, %47 ], [ %53, %52 ], [ %55, %54 ], [ %14, %42 ], [ %14, %.lr.ph ], [ 73, %45 ]
  %.141 = phi ptr [ %19, %17 ], [ %26, %24 ], [ %.04057, %22 ], [ %.04057, %36 ], [ %.04057, %39 ], [ %.04057, %47 ], [ %.04057, %52 ], [ %.04057, %54 ], [ %.04057, %42 ], [ %.04057, %.lr.ph ], [ %.04057, %45 ]
  %.1 = phi i32 [ %18, %17 ], [ %25, %24 ], [ %.058, %22 ], [ %34, %36 ], [ %34, %39 ], [ %46, %47 ], [ %46, %52 ], [ %46, %54 ], [ %.058, %42 ], [ %.058, %.lr.ph ], [ %46, %45 ]
  %57 = getelementptr inbounds nuw i8, ptr %.141, i64 1
  store i8 %.042, ptr %.141, align 1, !tbaa !11
  %58 = and i32 %.1, 32768
  %.not54 = icmp eq i32 %58, 0
  %59 = xor i32 %.1, 57344
  %spec.select = select i1 %.not54, i32 %.1, i32 %59
  %60 = load ptr, ptr %1, align 8, !tbaa !6
  %61 = icmp ult ptr %60, %2
  %62 = icmp ult ptr %57, %4
  %63 = select i1 %61, i1 %62, i1 false
  br i1 %63, label %.lr.ph, label %._crit_edge, !llvm.loop !16

._crit_edge:                                      ; preds = %56, %6
  %.040.lcssa = phi ptr [ %3, %6 ], [ %57, %56 ]
  %.0.lcssa = phi i32 [ %7, %6 ], [ %spec.select, %56 ]
  store i32 %.0.lcssa, ptr %0, align 4, !tbaa !14
  %64 = ptrtoint ptr %.040.lcssa to i64
  %65 = ptrtoint ptr %3 to i64
  %66 = sub i64 %64, %65
  %67 = trunc i64 %66 to i32
  ret i32 %67
}